Certificate:
    Data:
        Version: 3 (0x2)
        Serial Number: 1 (0x1)
    Signature Algorithm: sha256WithRSAEncryption
        Issuer: C=ES, ST=Granada, L=La Chana, O=SPSI, CN=Adrian Morente/emailAddress=adrianmorente@correo.ugr.es
        Validity
            Not Before: Dec 11 02:21:36 2017 GMT
            Not After : Apr 10 02:21:36 2018 GMT
        Subject: C=ES, ST=Granada, O=SPSI, OU=SPSI, CN=Adrian Morente/emailAddress=adrianmorente@correo.ugr.es
        Subject Public Key Info:
            Public Key Algorithm: rsaEncryption
                Public-Key: (4096 bit)
                Modulus:
                    00:bd:b8:f1:b9:38:e2:d6:a9:39:06:c2:2b:e1:f4:
                    a6:29:18:f0:e5:18:22:3d:79:a1:04:99:16:7d:22:
                    fd:4b:59:e4:d3:34:7d:33:b8:ed:c2:7f:7f:16:10:
                    e6:0e:14:1d:7c:98:58:46:cc:07:e6:36:12:1a:05:
                    2c:a8:86:e1:f9:71:2e:1d:45:7f:5a:35:9e:02:31:
                    d1:c0:43:f2:de:d8:9a:f1:02:15:30:59:3c:c3:4d:
                    f0:eb:f9:7f:f6:73:cf:b0:ce:e9:54:28:42:f5:1d:
                    78:80:57:11:6a:ef:fa:12:46:63:da:26:f1:6b:d8:
                    2f:83:db:b8:16:6a:e8:b3:dd:15:6a:8e:0a:48:53:
                    ab:b5:54:ce:58:94:ea:1f:70:31:93:72:7f:69:20:
                    08:c1:33:a3:50:b5:0a:52:90:51:9f:22:bd:25:0c:
                    91:aa:14:42:01:a2:d4:78:50:29:73:bc:00:4e:12:
                    4f:75:0c:38:ed:3e:6c:af:b2:fe:f2:b2:76:d4:66:
                    4c:7e:33:01:4a:0b:95:d3:49:0a:10:cc:65:cb:37:
                    55:8f:3e:62:52:ec:9d:7b:33:a9:3f:7b:70:30:36:
                    e4:3c:0f:f7:6b:da:42:2b:d2:dd:b5:d7:cf:8e:de:
                    ee:f0:12:b6:99:07:99:a5:3c:41:ad:22:41:ca:5f:
                    6b:e3:3f:54:46:2f:d4:54:34:e5:a4:bd:77:22:0d:
                    49:89:69:7c:59:15:6c:7c:ec:b6:2e:b0:e8:0e:c1:
                    1a:c7:9f:35:4e:db:87:50:39:43:97:66:c2:c5:e0:
                    f8:42:66:b7:2f:fd:0b:59:8c:70:6d:f9:0b:11:0c:
                    b5:49:7d:59:1e:28:25:7a:0a:e2:77:a6:bb:a3:2c:
                    2d:dd:57:29:86:fa:81:1c:15:ed:90:c4:4b:f9:3d:
                    2e:c5:4c:26:ce:ad:14:cd:a4:2a:86:d7:d5:bb:d1:
                    2d:dd:32:e4:80:a4:7a:c4:0e:ec:fb:cc:bb:3c:c5:
                    30:c7:7b:4a:f4:eb:e6:8a:1f:e6:52:31:70:5c:00:
                    6d:42:60:1c:fc:db:0e:68:fd:82:26:e8:c1:af:c8:
                    d3:b4:e0:1b:99:45:96:e6:72:7a:b7:f4:eb:ee:dd:
                    6f:57:4a:c4:2c:97:12:a7:92:de:04:ab:18:03:7d:
                    57:80:11:c5:07:97:fa:dc:3f:cc:dd:1b:fe:25:95:
                    b9:93:6d:22:0e:18:79:b6:03:31:ea:94:a2:90:2c:
                    fc:bf:b7:e3:62:9f:51:cd:cd:ee:b2:16:02:c9:fd:
                    ba:68:76:0b:82:b8:46:b8:08:ea:25:60:7e:3e:93:
                    6b:16:79:18:de:b5:d8:7b:60:69:8d:fd:69:84:77:
                    a9:29:15
                Exponent: 65537 (0x10001)
        X509v3 extensions:
            X509v3 Basic Constraints: 
                CA:FALSE
            Netscape Comment: 
                OpenSSL Generated Certificate
            X509v3 Subject Key Identifier: 
                6F:FA:46:12:81:42:90:85:E0:68:86:E9:BC:38:52:BC:48:8D:6A:6E
            X509v3 Authority Key Identifier: 
                keyid:D1:0F:26:32:4E:1A:FF:F7:C8:A0:CE:43:12:42:AD:2D:15:99:90:B2

    Signature Algorithm: sha256WithRSAEncryption
         a3:f7:f8:63:c7:94:b4:5d:c6:49:cd:18:21:d8:40:8c:32:ce:
         b1:4f:fb:02:14:e5:56:f6:0a:c3:c8:05:9d:7f:cc:db:82:a5:
         68:9b:49:e5:06:1f:3d:55:01:7a:c9:19:29:4f:ca:0a:09:73:
         9e:b0:41:a6:31:2f:94:91:dd:2c:27:f2:dd:40:c1:26:b7:a7:
         95:6c:a4:58:a9:98:7c:e7:7f:de:b3:f9:94:60:5d:4c:d2:d9:
         5f:86:91:0d:a3:6a:87:c3:ba:cd:a9:1f:25:c7:08:09:37:4d:
         0e:f9:f5:6c:16:c4:c8:ee:a7:55:97:f5:fd:00:03:72:1a:41:
         49:ae:84:4d:8d:7b:d7:76:14:60:7e:75:1b:48:2b:cd:f2:64:
         44:7a:0b:75:dd:5e:5f:9a:a0:aa:d9:cf:f7:38:e9:56:cc:d9:
         f5:87:83:0d:ab:35:b3:0b:f5:5f:c0:55:6f:2e:c9:a4:4d:a3:
         a9:03:8f:99:1c:9a:81:0c:73:97:38:05:03:ef:4c:a0:f1:af:
         10:0a:9e:f4:41:28:29:90:a3:bf:7b:40:e4:38:f1:e6:54:36:
         03:1b:23:bf:33:fd:08:bf:ac:b9:e7:7f:71:10:cd:48:72:1e:
         36:ee:9f:15:3e:e5:5d:af:1b:97:bb:4b:a5:c7:27:2d:ad:77:
         79:d7:9b:51:c5:2e:0a:c4:33:bb:bb:8f:a7:09:55:76:65:d1:
         c2:bf:95:83:ca:56:f7:fd:33:b9:2b:4e:b9:87:ad:a8:71:1c:
         6e:3d:63:cc:a2:ef:0d:11:17:5a:b5:70:b8:a5:09:12:93:d4:
         e4:e4:90:2e:71:6d:00:78:e0:67:33:18:7c:3f:e4:48:d5:58:
         70:93:87:7f:54:c5:90:e6:4a:1b:70:dc:14:18:9b:f5:14:7c:
         6d:33:0b:77:d5:68:1a:d9:42:2d:a7:bc:e5:30:aa:15:04:0f:
         9d:64:d3:14:d4:6f:0b:c4:8e:9e:c0:74:aa:6e:2f:22:b6:56:
         21:78:c9:84:ea:6d:e2:72:4e:67:ee:64:f6:91:7f:0d:b3:d7:
         4a:c1:23:fe:c4:7e:1b:ae:37:79:cf:ef:5d:23:a6:bd:c3:d7:
         38:ac:1a:fb:bc:1d:b0:64:77:c2:84:91:fc:0e:67:0e:8b:05:
         d7:c9:9d:4c:89:86:e8:aa:2e:7a:3d:63:1b:d7:99:1d:26:37:
         6e:86:e8:4e:b7:72:52:63:a7:a4:89:f6:63:46:47:35:f0:a0:
         d8:39:1f:c6:b2:89:ed:25:6a:e8:79:69:6b:f1:5a:02:9a:4f:
         12:c9:93:5a:64:79:60:e1:5f:6b:0c:3a:c5:44:17:98:7e:b6:
         6f:cd:ac:96:f5:fd:6e:26
-----BEGIN CERTIFICATE-----
MIIGADCCA+igAwIBAgIBATANBgkqhkiG9w0BAQsFADCBhjELMAkGA1UEBhMCRVMx
EDAOBgNVBAgMB0dyYW5hZGExETAPBgNVBAcMCExhIENoYW5hMQ0wCwYDVQQKDART
UFNJMRcwFQYDVQQDDA5BZHJpYW4gTW9yZW50ZTEqMCgGCSqGSIb3DQEJARYbYWRy
aWFubW9yZW50ZUBjb3JyZW8udWdyLmVzMB4XDTE3MTIxMTAyMjEzNloXDTE4MDQx
MDAyMjEzNlowgYIxCzAJBgNVBAYTAkVTMRAwDgYDVQQIDAdHcmFuYWRhMQ0wCwYD
VQQKDARTUFNJMQ0wCwYDVQQLDARTUFNJMRcwFQYDVQQDDA5BZHJpYW4gTW9yZW50
ZTEqMCgGCSqGSIb3DQEJARYbYWRyaWFubW9yZW50ZUBjb3JyZW8udWdyLmVzMIIC
IjANBgkqhkiG9w0BAQEFAAOCAg8AMIICCgKCAgEAvbjxuTji1qk5BsIr4fSmKRjw
5RgiPXmhBJkWfSL9S1nk0zR9M7jtwn9/FhDmDhQdfJhYRswH5jYSGgUsqIbh+XEu
HUV/WjWeAjHRwEPy3tia8QIVMFk8w03w6/l/9nPPsM7pVChC9R14gFcRau/6EkZj
2ibxa9gvg9u4Fmros90Vao4KSFOrtVTOWJTqH3Axk3J/aSAIwTOjULUKUpBRnyK9
JQyRqhRCAaLUeFApc7wAThJPdQw47T5sr7L+8rJ21GZMfjMBSguV00kKEMxlyzdV
jz5iUuydezOpP3twMDbkPA/3a9pCK9LdtdfPjt7u8BK2mQeZpTxBrSJByl9r4z9U
Ri/UVDTlpL13Ig1JiWl8WRVsfOy2LrDoDsEax581TtuHUDlDl2bCxeD4Qma3L/0L
WYxwbfkLEQy1SX1ZHiglegrid6a7oywt3VcphvqBHBXtkMRL+T0uxUwmzq0UzaQq
htfVu9Et3TLkgKR6xA7s+8y7PMUwx3tK9Ovmih/mUjFwXABtQmAc/NsOaP2CJujB
r8jTtOAbmUWW5nJ6t/Tr7t1vV0rELJcSp5LeBKsYA31XgBHFB5f63D/M3Rv+JZW5
k20iDhh5tgMx6pSikCz8v7fjYp9Rzc3ushYCyf26aHYLgrhGuAjqJWB+PpNrFnkY
3rXYe2Bpjf1phHepKRUCAwEAAaN7MHkwCQYDVR0TBAIwADAsBglghkgBhvhCAQ0E
HxYdT3BlblNTTCBHZW5lcmF0ZWQgQ2VydGlmaWNhdGUwHQYDVR0OBBYEFG/6RhKB
QpCF4GiG6bw4UrxIjWpuMB8GA1UdIwQYMBaAFNEPJjJOGv/3yKDOQxJCrS0VmZCy
MA0GCSqGSIb3DQEBCwUAA4ICAQCj9/hjx5S0XcZJzRgh2ECMMs6xT/sCFOVW9grD
yAWdf8zbgqVom0nlBh89VQF6yRkpT8oKCXOesEGmMS+Ukd0sJ/LdQMEmt6eVbKRY
qZh853/es/mUYF1M0tlfhpENo2qHw7rNqR8lxwgJN00O+fVsFsTI7qdVl/X9AANy
GkFJroRNjXvXdhRgfnUbSCvN8mREegt13V5fmqCq2c/3OOlWzNn1h4MNqzWzC/Vf
wFVvLsmkTaOpA4+ZHJqBDHOXOAUD70yg8a8QCp70QSgpkKO/e0DkOPHmVDYDGyO/
M/0Iv6y5539xEM1Ich427p8VPuVdrxuXu0ulxyctrXd515tRxS4KxDO7u4+nCVV2
ZdHCv5WDylb3/TO5K065h62ocRxuPWPMou8NERdatXC4pQkSk9Tk5JAucW0AeOBn
Mxh8P+RI1Vhwk4d/VMWQ5kobcNwUGJv1FHxtMwt31Wga2UItp7zlMKoVBA+dZNMU
1G8LxI6ewHSqbi8itlYheMmE6m3ick5n7mT2kX8Ns9dKwSP+xH4brjd5z+9dI6a9
w9c4rBr7vB2wZHfChJH8DmcOiwXXyZ1MiYboqi56PWMb15kdJjduhuhOt3JSY6ek
ifZjRkc18KDYOR/GsontJWroeWlr8VoCmk8SyZNaZHlg4V9rDDrFRBeYfrZvzayW
9f1uJg==
-----END CERTIFICATE-----
