Certificate:
    Data:
        Version: 3 (0x2)
        Serial Number: 2 (0x2)
    Signature Algorithm: sha256WithRSAEncryption
        Issuer: C=ES, ST=Granada, L=La Chana, O=SPSI, CN=Adrian Morente/emailAddress=adrianmorente@correo.ugr.es
        Validity
            Not Before: Dec 11 02:47:27 2017 GMT
            Not After : Apr 10 02:47:27 2018 GMT
        Subject: C=ES, ST=Granada, O=SPSI, OU=SPSI, CN=Adrian Morente/emailAddress=adrianmorente@correo.ugr.es
        Subject Public Key Info:
            Public Key Algorithm: dsaEncryption
                pub: 
                    22:e6:0c:67:bb:45:71:9c:c2:ba:a7:67:87:0b:f1:
                    95:d0:8f:d9:5c:34:c1:c8:b2:41:f4:1a:50:16:fc:
                    3b:1a:1a:db:09:a1:f4:be:3e:cc:a3:b7:60:f1:3d:
                    f2:19:f6:a3:94:e4:60:10:03:c2:47:6e:dd:9a:60:
                    01:bc:6e:d4
                P:   
                    00:ed:27:a3:0d:52:f9:f7:3e:db:8f:57:83:da:28:
                    02:47:4b:2a:53:02:d3:5c:51:37:2f:0e:c5:d3:f4:
                    5a:39:1f:91:fc:94:8c:d7:e8:b1:98:6c:cd:84:76:
                    bd:94:b7:50:d7:f8:a2:52:e6:72:7f:25:01:b6:cc:
                    f3:e2:63:02:eb
                Q:   
                    00:91:38:fd:95:29:0b:a4:f5:a2:f5:7c:e1:de:3a:
                    39:18:7c:a3:aa:8b
                G:   
                    03:a6:b5:4a:a3:bd:18:16:a2:1e:c5:5c:bf:59:ea:
                    e9:ef:f5:5e:ae:a2:bb:12:5e:10:91:55:2a:01:94:
                    b6:34:3d:b0:97:66:5d:dd:e0:9f:37:f1:27:33:40:
                    b6:90:6c:ae:cf:31:68:0b:e3:49:cd:d5:41:97:e3:
                    20:6d:9c:c7
        X509v3 extensions:
            X509v3 Basic Constraints: 
                CA:FALSE
            Netscape Comment: 
                OpenSSL Generated Certificate
            X509v3 Subject Key Identifier: 
                24:1B:93:3E:A7:74:26:A5:5E:CC:82:88:DF:10:B0:5A:53:56:79:E6
            X509v3 Authority Key Identifier: 
                keyid:D1:0F:26:32:4E:1A:FF:F7:C8:A0:CE:43:12:42:AD:2D:15:99:90:B2

    Signature Algorithm: sha256WithRSAEncryption
         10:3a:69:27:70:be:49:7d:71:46:15:31:25:d6:ab:9d:27:53:
         37:37:f7:d7:7b:df:15:b3:ff:a7:a8:ef:85:a1:ba:61:96:9f:
         ab:58:82:c5:ee:fe:1f:93:33:8f:ec:d3:32:8a:3f:88:b5:4e:
         52:ad:64:8d:2c:ae:5a:e0:f4:c9:3b:99:b3:d2:37:05:ee:b6:
         06:f9:51:ee:fd:9a:49:f2:d2:8a:ce:25:03:77:1d:52:2c:d1:
         b3:07:98:c7:e9:68:88:41:8e:fb:b5:38:2b:f6:1a:fe:6e:46:
         95:67:18:d1:e1:26:e9:9b:7d:7f:a4:57:d0:4e:20:4f:03:39:
         46:25:86:89:73:7e:30:bb:a4:a0:85:ac:8d:44:13:73:b5:3c:
         a5:b7:dc:8c:0d:7d:fc:db:3b:1c:9a:bc:35:db:d0:78:05:c5:
         ea:7c:cf:49:68:cf:97:63:23:e8:62:dd:8b:71:17:42:f1:86:
         56:26:af:16:63:01:31:39:f5:38:65:53:d4:01:e8:4d:e8:47:
         9e:64:09:4e:db:1b:24:39:1c:b8:7a:cf:a9:89:9e:5f:0e:09:
         28:60:87:09:42:2d:43:07:de:3c:e9:04:9e:01:9e:0d:4b:68:
         9e:3b:0c:78:fe:02:c5:8a:93:50:62:92:70:66:d9:1d:b4:bc:
         c1:2b:df:cf:ea:1c:31:be:b1:25:24:1a:9e:12:02:b5:a2:37:
         5f:e9:77:3a:5d:17:c0:02:67:90:c1:71:62:7c:6e:eb:97:60:
         32:c1:e1:b9:0a:86:09:fe:fe:a5:7a:82:41:e2:54:e1:06:4c:
         5c:75:a6:7d:bf:bf:c4:a5:33:9b:45:97:d3:16:8f:49:58:db:
         03:a4:a4:70:11:14:3d:f8:5a:ed:28:d6:3b:dd:7e:c9:65:e4:
         6a:ab:71:4e:ea:a5:8e:b9:51:2c:d0:a1:6e:08:56:5d:40:e2:
         7a:ae:84:a4:93:2e:3e:f3:4c:9e:53:03:93:e0:78:17:62:42:
         66:d1:a2:b0:64:c6:e5:bf:29:20:a7:a7:1d:67:80:0e:c3:5e:
         a3:c3:91:49:f1:8c:6f:a6:69:65:99:0e:32:6b:6a:72:27:a7:
         2a:41:18:88:0d:b4:86:c1:03:dd:b9:b2:c5:c0:f4:8d:82:87:
         b6:2c:4b:3d:23:81:04:59:0a:da:bf:b0:e8:5f:2c:8b:a8:6a:
         52:3c:a1:9a:e4:0a:6f:de:e0:05:78:71:27:d6:0a:66:8a:cf:
         36:0c:00:d1:e2:11:a3:64:f8:eb:f6:02:b2:b2:b0:5b:a6:0c:
         db:e7:d1:69:49:77:03:c4:80:a6:50:d7:86:7b:41:5f:cb:fe:
         b8:2e:09:57:9a:94:f6:0d
-----BEGIN CERTIFICATE-----
MIIEzTCCArWgAwIBAgIBAjANBgkqhkiG9w0BAQsFADCBhjELMAkGA1UEBhMCRVMx
EDAOBgNVBAgMB0dyYW5hZGExETAPBgNVBAcMCExhIENoYW5hMQ0wCwYDVQQKDART
UFNJMRcwFQYDVQQDDA5BZHJpYW4gTW9yZW50ZTEqMCgGCSqGSIb3DQEJARYbYWRy
aWFubW9yZW50ZUBjb3JyZW8udWdyLmVzMB4XDTE3MTIxMTAyNDcyN1oXDTE4MDQx
MDAyNDcyN1owgYIxCzAJBgNVBAYTAkVTMRAwDgYDVQQIDAdHcmFuYWRhMQ0wCwYD
VQQKDARTUFNJMQ0wCwYDVQQLDARTUFNJMRcwFQYDVQQDDA5BZHJpYW4gTW9yZW50
ZTEqMCgGCSqGSIb3DQEJARYbYWRyaWFubW9yZW50ZUBjb3JyZW8udWdyLmVzMIHw
MIGoBgcqhkjOOAQBMIGcAkEA7SejDVL59z7bj1eD2igCR0sqUwLTXFE3Lw7F0/Ra
OR+R/JSM1+ixmGzNhHa9lLdQ1/iiUuZyfyUBtszz4mMC6wIVAJE4/ZUpC6T1ovV8
4d46ORh8o6qLAkADprVKo70YFqIexVy/Werp7/VerqK7El4QkVUqAZS2ND2wl2Zd
3eCfN/EnM0C2kGyuzzFoC+NJzdVBl+MgbZzHA0MAAkAi5gxnu0VxnMK6p2eHC/GV
0I/ZXDTByLJB9BpQFvw7GhrbCaH0vj7Mo7dg8T3yGfajlORgEAPCR27dmmABvG7U
o3sweTAJBgNVHRMEAjAAMCwGCWCGSAGG+EIBDQQfFh1PcGVuU1NMIEdlbmVyYXRl
ZCBDZXJ0aWZpY2F0ZTAdBgNVHQ4EFgQUJBuTPqd0JqVezIKI3xCwWlNWeeYwHwYD
VR0jBBgwFoAU0Q8mMk4a//fIoM5DEkKtLRWZkLIwDQYJKoZIhvcNAQELBQADggIB
ABA6aSdwvkl9cUYVMSXWq50nUzc399d73xWz/6eo74WhumGWn6tYgsXu/h+TM4/s
0zKKP4i1TlKtZI0srlrg9Mk7mbPSNwXutgb5Ue79mkny0orOJQN3HVIs0bMHmMfp
aIhBjvu1OCv2Gv5uRpVnGNHhJumbfX+kV9BOIE8DOUYlholzfjC7pKCFrI1EE3O1
PKW33IwNffzbOxyavDXb0HgFxep8z0loz5djI+hi3YtxF0LxhlYmrxZjATE59Thl
U9QB6E3oR55kCU7bGyQ5HLh6z6mJnl8OCShghwlCLUMH3jzpBJ4Bng1LaJ47DHj+
AsWKk1BiknBm2R20vMEr38/qHDG+sSUkGp4SArWiN1/pdzpdF8ACZ5DBcWJ8buuX
YDLB4bkKhgn+/qV6gkHiVOEGTFx1pn2/v8SlM5tFl9MWj0lY2wOkpHARFD34Wu0o
1jvdfsll5GqrcU7qpY65USzQoW4IVl1A4nquhKSTLj7zTJ5TA5PgeBdiQmbRorBk
xuW/KSCnpx1ngA7DXqPDkUnxjG+maWWZDjJranInpypBGIgNtIbBA925ssXA9I2C
h7YsSz0jgQRZCtq/sOhfLIuoalI8oZrkCm/e4AV4cSfWCmaKzzYMANHiEaNk+Ov2
ArKysFumDNvn0WlJdwPEgKZQ14Z7QV/L/rguCVealPYN
-----END CERTIFICATE-----
